Certificate:
    Data:
        Version: 3 (0x2)
        Serial Number: 4097 (0x1001)
        Signature Algorithm: sha256WithRSAEncryption
        Issuer: C=AR, ST=Buenos Aires, L=CABA, CN=BancoCentralCA
        Validity
            Not Before: Jun 10 21:51:25 2026 GMT
            Not After : Jun 10 21:51:25 2027 GMT
        Subject: C=AR, ST=Buenos Aires, O=MercadoPago, CN=mercadopago
        Subject Public Key Info:
            Public Key Algorithm: rsaEncryption
                Public-Key: (2048 bit)
                Modulus:
                    00:a0:64:d8:ce:7d:db:35:92:10:da:45:01:94:b4:
                    04:60:b3:63:c4:d1:dc:57:7b:cc:3d:f6:36:aa:9b:
                    d4:4b:a5:0a:89:1d:2d:8c:94:31:1f:e8:f0:4d:e9:
                    c2:80:81:af:fe:dd:2a:2c:e2:20:37:d1:a8:d0:8a:
                    ad:43:bb:4d:4a:b2:b7:7f:55:6f:f8:f3:17:4b:82:
                    47:8a:5c:26:4d:37:11:79:da:80:92:e5:54:e2:58:
                    fe:ff:55:2d:a8:44:fe:41:20:68:f5:da:23:ab:cf:
                    6e:c6:89:6d:9c:68:32:72:8f:e6:5a:aa:f3:59:ce:
                    d8:c2:5c:31:b4:90:5d:c1:90:5d:03:96:fc:a9:10:
                    eb:64:dd:88:00:be:de:5e:39:cf:4e:50:c0:2c:1f:
                    71:f4:e9:c2:1d:38:98:55:cb:6d:0f:06:ad:b7:6a:
                    7e:cf:b4:d4:b6:f3:2e:0c:8e:ec:03:7e:cd:68:06:
                    66:a3:d1:f9:96:c2:7d:09:12:79:52:d4:fc:5b:50:
                    54:89:25:79:b1:33:85:86:23:9d:9b:d6:af:17:87:
                    cb:37:c0:10:29:28:be:43:d1:56:a4:94:e6:f0:21:
                    14:11:01:9a:c3:f0:b3:30:fe:d2:f3:29:58:26:b1:
                    b5:3b:13:0b:7a:5e:95:6a:58:e3:d1:a2:3c:21:39:
                    5e:2f
                Exponent: 65537 (0x10001)
        X509v3 extensions:
            X509v3 Basic Constraints: 
                CA:FALSE
            Netscape Cert Type: 
                SSL Client
            X509v3 Key Usage: critical
                Digital Signature
            X509v3 Extended Key Usage: 
                TLS Web Client Authentication
            X509v3 Subject Key Identifier: 
                88:63:B3:E9:ED:EC:5D:5D:DA:2A:1C:AE:17:89:63:9D:B4:F1:4F:C0
            X509v3 Authority Key Identifier: 
                9A:E7:04:65:FA:67:B2:9C:33:51:9D:CC:E4:56:69:F2:38:55:EE:A1
    Signature Algorithm: sha256WithRSAEncryption
    Signature Value:
        7c:47:4f:73:ec:71:fc:58:f7:c2:72:8f:f1:25:3e:59:93:d0:
        55:4a:cc:69:18:f5:6e:6b:51:fa:28:85:a4:45:07:98:b9:3c:
        b1:d0:5d:ed:b7:a6:5e:5a:20:c7:09:b8:f4:a6:18:d1:da:ed:
        92:eb:f7:c0:a4:2b:0b:5a:c0:54:b3:89:5d:7b:06:bd:86:b8:
        b3:29:02:4f:c7:65:43:56:d4:ec:80:0f:4d:c9:e2:2b:ea:10:
        30:88:40:73:1e:ea:fa:ab:85:09:2a:e2:04:19:77:69:f0:b3:
        29:6d:a0:cb:dc:19:16:b1:3d:e1:c0:85:31:e7:06:27:87:2f:
        5a:73:f9:5a:61:c0:13:52:8d:ff:bb:b0:c5:85:10:d6:d4:ee:
        19:7c:a1:16:89:cd:ae:6e:9d:da:e3:be:96:3a:4e:84:9e:7f:
        87:ef:06:11:e5:38:99:9f:09:8a:49:b7:ed:7a:e1:67:9d:da:
        59:01:52:e5:66:55:f3:a3:d3:08:de:db:3f:fd:2f:77:d2:41:
        1a:b6:ca:c1:77:31:8b:de:29:65:ff:01:1d:0c:84:8c:22:96:
        c1:fa:a4:c7:b7:3f:da:5d:b7:30:cd:9e:70:e5:c1:50:59:dd:
        fd:0a:f4:5c:92:0d:f1:e4:f9:52:16:71:f9:e3:71:93:e8:fd:
        34:75:93:2f
-----BEGIN CERTIFICATE-----
MIIDnzCCAoegAwIBAgICEAEwDQYJKoZIhvcNAQELBQAwTDELMAkGA1UEBhMCQVIx
FTATBgNVBAgMDEJ1ZW5vcyBBaXJlczENMAsGA1UEBwwEQ0FCQTEXMBUGA1UEAwwO
QmFuY29DZW50cmFsQ0EwHhcNMjYwNjEwMjE1MTI1WhcNMjcwNjEwMjE1MTI1WjBQ
MQswCQYDVQQGEwJBUjEVMBMGA1UECAwMQnVlbm9zIEFpcmVzMRQwEgYDVQQKDAtN
ZXJjYWRvUGFnbzEUMBIGA1UEAwwLbWVyY2Fkb3BhZ28wggEiMA0GCSqGSIb3DQEB
AQUAA4IBDwAwggEKAoIBAQCgZNjOfds1khDaRQGUtARgs2PE0dxXe8w99jaqm9RL
pQqJHS2MlDEf6PBN6cKAga/+3Sos4iA30ajQiq1Du01Ksrd/VW/48xdLgkeKXCZN
NxF52oCS5VTiWP7/VS2oRP5BIGj12iOrz27GiW2caDJyj+ZaqvNZztjCXDG0kF3B
kF0DlvypEOtk3YgAvt5eOc9OUMAsH3H06cIdOJhVy20PBq23an7PtNS28y4MjuwD
fs1oBmaj0fmWwn0JEnlS1PxbUFSJJXmxM4WGI52b1q8Xh8s3wBApKL5D0VaklObw
IRQRAZrD8LMw/tLzKVgmsbU7Ewt6XpVqWOPRojwhOV4vAgMBAAGjgYYwgYMwCQYD
VR0TBAIwADARBglghkgBhvhCAQEEBAMCB4AwDgYDVR0PAQH/BAQDAgeAMBMGA1Ud
JQQMMAoGCCsGAQUFBwMCMB0GA1UdDgQWBBSIY7Pp7exdXdoqHK4XiWOdtPFPwDAf
BgNVHSMEGDAWgBSa5wRl+meynDNRnczkVmnyOFXuoTANBgkqhkiG9w0BAQsFAAOC
AQEAfEdPc+xx/Fj3wnKP8SU+WZPQVUrMaRj1bmtR+iiFpEUHmLk8sdBd7bemXlog
xwm49KYY0drtkuv3wKQrC1rAVLOJXXsGvYa4sykCT8dlQ1bU7IAPTcniK+oQMIhA
cx7q+quFCSriBBl3afCzKW2gy9wZFrE94cCFMecGJ4cvWnP5WmHAE1KN/7uwxYUQ
1tTuGXyhFonNrm6d2uO+ljpOhJ5/h+8GEeU4mZ8Jikm37XrhZ53aWQFS5WZV86PT
CN7bP/0vd9JBGrbKwXcxi94pZf8BHQyEjCKWwfqkx7c/2l23MM2ecOXBUFnd/Qr0
XJIN8eT5UhZx+eNxk+j9NHWTLw==
-----END CERTIFICATE-----
