Certificate:
    Data:
        Version: 3 (0x2)
        Serial Number: 4097 (0x1001)
        Signature Algorithm: sha256WithRSAEncryption
        Issuer: C=AR, ST=Buenos Aires, L=CABA, CN=BancoCentralCA
        Validity
            Not Before: May 26 03:41:50 2026 GMT
            Not After : May 26 03:41:50 2027 GMT
        Subject: C=AR, ST=Buenos Aires, O=MercadoPago, CN=mercadopago
        Subject Public Key Info:
            Public Key Algorithm: rsaEncryption
                Public-Key: (2048 bit)
                Modulus:
                    00:be:27:f9:28:53:c2:14:df:e2:32:bf:c0:f8:f5:
                    e9:b3:d5:5d:56:92:91:91:74:c0:8b:d7:7f:b1:67:
                    f2:85:ac:18:c2:e0:1f:d1:d3:88:ea:5c:62:b9:ff:
                    ba:ae:f8:4e:8f:f6:4b:c0:2f:a6:9c:8e:5f:45:94:
                    19:2b:db:14:3d:68:f3:75:49:96:55:bb:fa:de:b6:
                    82:04:0a:49:25:65:40:16:1f:a1:c7:e4:f3:13:f6:
                    3b:8d:74:cc:c5:d8:f0:b5:a3:f7:90:59:81:b9:ca:
                    d9:e7:d0:05:a1:87:66:4c:64:d8:9a:8c:db:5d:4e:
                    21:f3:14:e5:78:79:6c:2d:51:06:8a:35:24:50:e8:
                    cb:e3:a5:11:b9:0e:49:25:ea:c0:76:81:09:79:ea:
                    66:11:8f:ca:aa:88:92:9d:a5:47:d7:a6:f1:74:74:
                    2a:91:1b:d4:bc:6a:1c:18:7d:c0:bb:04:73:89:8f:
                    18:31:71:52:f4:05:88:df:79:8d:ff:6a:27:b8:ab:
                    81:0d:14:65:3d:15:e5:42:e4:23:35:a6:bb:0d:f6:
                    a1:8a:46:7f:39:63:bd:07:d1:59:b4:bd:e2:41:49:
                    69:34:59:ba:49:23:a9:cb:c8:bb:90:e8:57:94:64:
                    57:6a:7d:70:ba:1c:65:44:17:73:7f:f1:74:a3:c8:
                    6f:d9
                Exponent: 65537 (0x10001)
        X509v3 extensions:
            X509v3 Basic Constraints: 
                CA:FALSE
            X509v3 Subject Key Identifier: 
                5B:49:BE:A0:C9:82:A9:C9:E6:29:62:7E:FD:8A:DC:D3:9A:11:FB:EF
            X509v3 Authority Key Identifier: 
                53:E1:75:5F:96:55:76:D3:FB:E1:F1:36:63:AA:2E:91:92:DF:B7:C1
    Signature Algorithm: sha256WithRSAEncryption
    Signature Value:
        36:f2:c6:77:d1:f8:2d:e9:02:4b:4a:52:c2:68:57:91:a1:40:
        92:61:53:d0:8d:cb:62:eb:a7:7c:24:27:97:00:72:dd:b3:f4:
        93:e1:15:61:ed:eb:06:6a:a8:17:d8:5e:a6:ae:a0:c4:2f:14:
        93:83:87:bc:d6:6d:ff:62:bd:ec:c7:80:d3:16:49:bf:30:5e:
        eb:7a:f9:ea:13:77:1b:9d:ec:cb:25:10:08:49:60:17:05:9f:
        37:5b:80:bb:26:36:c9:a7:3e:30:98:f9:c0:81:31:ef:0a:19:
        07:9b:bb:0b:7b:57:0d:44:ff:59:ee:d2:4f:22:be:5a:f4:23:
        20:7c:9d:70:d2:ac:52:8e:ab:6b:a8:aa:c6:64:bd:52:8b:bd:
        d4:43:f7:47:da:d8:83:d9:b7:3a:39:ac:d7:86:53:a8:82:b8:
        18:7e:5a:84:7d:93:70:64:92:ee:ef:39:39:d0:15:da:ff:69:
        f4:ea:c5:de:41:06:e5:a0:4d:ab:fa:79:5d:83:7f:9a:d9:a8:
        6d:db:84:4d:b4:ad:73:30:76:6b:3a:d4:47:f2:35:9f:dd:80:
        67:95:3c:88:27:da:24:78:de:20:68:19:cf:3e:d4:7d:24:98:
        48:dc:dc:d0:46:e7:db:00:75:28:d2:04:8f:f9:3c:d0:c6:df:
        24:7d:20:fc
-----BEGIN CERTIFICATE-----
MIIDZTCCAk2gAwIBAgICEAEwDQYJKoZIhvcNAQELBQAwTDELMAkGA1UEBhMCQVIx
FTATBgNVBAgMDEJ1ZW5vcyBBaXJlczENMAsGA1UEBwwEQ0FCQTEXMBUGA1UEAwwO
QmFuY29DZW50cmFsQ0EwHhcNMjYwNTI2MDM0MTUwWhcNMjcwNTI2MDM0MTUwWjBQ
MQswCQYDVQQGEwJBUjEVMBMGA1UECAwMQnVlbm9zIEFpcmVzMRQwEgYDVQQKDAtN
ZXJjYWRvUGFnbzEUMBIGA1UEAwwLbWVyY2Fkb3BhZ28wggEiMA0GCSqGSIb3DQEB
AQUAA4IBDwAwggEKAoIBAQC+J/koU8IU3+Iyv8D49emz1V1WkpGRdMCL13+xZ/KF
rBjC4B/R04jqXGK5/7qu+E6P9kvAL6acjl9FlBkr2xQ9aPN1SZZVu/retoIECkkl
ZUAWH6HH5PMT9juNdMzF2PC1o/eQWYG5ytnn0AWhh2ZMZNiajNtdTiHzFOV4eWwt
UQaKNSRQ6MvjpRG5Dkkl6sB2gQl56mYRj8qqiJKdpUfXpvF0dCqRG9S8ahwYfcC7
BHOJjxgxcVL0BYjfeY3/aie4q4ENFGU9FeVC5CM1prsN9qGKRn85Y70H0Vm0veJB
SWk0WbpJI6nLyLuQ6FeUZFdqfXC6HGVEF3N/8XSjyG/ZAgMBAAGjTTBLMAkGA1Ud
EwQCMAAwHQYDVR0OBBYEFFtJvqDJgqnJ5ilifv2K3NOaEfvvMB8GA1UdIwQYMBaA
FFPhdV+WVXbT++HxNmOqLpGS37fBMA0GCSqGSIb3DQEBCwUAA4IBAQA28sZ30fgt
6QJLSlLCaFeRoUCSYVPQjcti66d8JCeXAHLds/ST4RVh7esGaqgX2F6mrqDELxST
g4e81m3/Yr3sx4DTFkm/MF7revnqE3cbnezLJRAISWAXBZ83W4C7JjbJpz4wmPnA
gTHvChkHm7sLe1cNRP9Z7tJPIr5a9CMgfJ1w0qxSjqtrqKrGZL1Si73UQ/dH2tiD
2bc6OazXhlOogrgYflqEfZNwZJLu7zk50BXa/2n06sXeQQbloE2r+nldg3+a2aht
24RNtK1zMHZrOtRH8jWf3YBnlTyIJ9okeN4gaBnPPtR9JJhI3NzQRufbAHUo0gSP
+TzQxt8kfSD8
-----END CERTIFICATE-----
