Certificate:
    Data:
        Version: 3 (0x2)
        Serial Number: 4096 (0x1000)
        Signature Algorithm: sha256WithRSAEncryption
        Issuer: C=AR, ST=Buenos Aires, L=CABA, CN=BancoCentralCA
        Validity
            Not Before: May 26 21:36:48 2026 GMT
            Not After : May 26 21:36:48 2027 GMT
        Subject: C=AR, ST=Buenos Aires, O=Santander, CN=localhost
        Subject Public Key Info:
            Public Key Algorithm: rsaEncryption
                Public-Key: (2048 bit)
                Modulus:
                    00:db:cc:0d:3d:55:6b:a9:98:30:6b:68:d0:89:f0:
                    fa:13:9d:f5:c7:38:f4:6f:1c:87:cb:24:a0:d1:43:
                    c6:c8:35:07:1b:df:c3:e7:41:db:0b:e0:b5:90:95:
                    55:92:04:38:2c:4a:f6:40:c2:e1:eb:a9:f7:4a:ea:
                    4b:6b:cf:d7:06:d5:52:d4:7b:2a:89:57:65:0b:ae:
                    cf:07:6d:ae:d8:99:67:60:83:22:fb:ed:e0:5a:ec:
                    22:5f:17:c3:b4:62:4e:ed:08:9f:8d:92:49:e9:41:
                    c0:bd:af:5f:0c:5d:23:54:9a:54:2f:de:0d:30:b8:
                    17:ce:c4:08:4d:29:fb:c4:e6:8b:c7:3c:5d:3d:7a:
                    1f:05:d1:99:42:22:5a:ff:49:44:a2:fc:35:6c:6b:
                    b2:6f:3e:0a:89:3b:1c:6e:04:b5:0e:92:94:42:82:
                    df:e3:62:9f:28:18:29:66:97:2f:4d:92:9c:27:29:
                    74:de:e5:a8:c9:b7:f6:51:2c:3d:3d:67:7e:46:d4:
                    df:47:ba:04:ce:94:c0:41:5a:13:01:e8:f6:3e:2e:
                    6a:8b:39:67:dc:75:53:6e:99:a3:8d:39:ca:87:81:
                    7d:94:b5:02:1f:dc:b9:c7:c2:9d:3a:fd:b5:f1:7e:
                    c7:a2:8a:05:55:41:6a:31:b7:ab:42:9f:89:d5:cd:
                    8a:ab
                Exponent: 65537 (0x10001)
        X509v3 extensions:
            X509v3 Basic Constraints: 
                CA:FALSE
            X509v3 Subject Key Identifier: 
                E5:7A:60:20:83:98:5A:FA:86:64:AA:90:83:0E:CF:20:29:2B:9C:B5
            X509v3 Authority Key Identifier: 
                7E:45:9D:FC:23:15:A7:FD:D7:3A:FB:F2:7B:EE:A0:95:DD:64:3C:0F
    Signature Algorithm: sha256WithRSAEncryption
    Signature Value:
        0f:f8:de:e0:6e:23:45:4f:ea:4b:5a:8d:aa:da:17:75:17:4c:
        16:35:e7:b0:a4:1b:a0:2d:ba:a6:3c:07:fd:d2:8f:45:bb:2b:
        ca:01:62:27:23:bc:ce:58:0f:39:f7:92:7f:49:7a:94:8f:ca:
        be:66:80:a5:dd:e4:f9:a6:4a:90:ca:ae:5a:38:96:40:b0:94:
        58:05:83:a7:85:cd:20:cf:a8:3a:d6:79:66:d6:db:ec:e1:bb:
        d4:bf:7e:38:04:34:6b:b3:8e:ee:b9:a7:45:43:d4:d7:cc:f3:
        fa:a2:48:92:02:33:cd:32:a6:0f:bf:df:fd:5f:ac:82:cb:e7:
        79:cf:6f:c7:c8:11:88:a2:50:a6:23:ba:7f:36:77:0a:32:62:
        d8:eb:1e:12:92:b0:c2:b6:95:a0:dd:00:0e:5c:d5:b7:09:fc:
        4a:ee:27:ac:f2:e5:39:ed:7b:56:54:cd:20:e1:e8:19:d6:28:
        77:c1:2f:98:cf:9a:ff:ea:29:db:96:36:fe:5e:ae:cd:ae:3a:
        51:ba:91:53:e4:1c:6d:1a:d0:49:d1:7e:41:f4:dc:f9:9a:87:
        e1:45:7e:e8:e0:61:66:6e:b5:b7:33:d2:8d:6b:1e:fc:f3:b4:
        19:2a:8c:b5:02:2f:c2:70:44:42:8c:e9:69:fb:d2:35:18:ff:
        92:fb:62:81
-----BEGIN CERTIFICATE-----
MIIDYTCCAkmgAwIBAgICEAAwDQYJKoZIhvcNAQELBQAwTDELMAkGA1UEBhMCQVIx
FTATBgNVBAgMDEJ1ZW5vcyBBaXJlczENMAsGA1UEBwwEQ0FCQTEXMBUGA1UEAwwO
QmFuY29DZW50cmFsQ0EwHhcNMjYwNTI2MjEzNjQ4WhcNMjcwNTI2MjEzNjQ4WjBM
MQswCQYDVQQGEwJBUjEVMBMGA1UECAwMQnVlbm9zIEFpcmVzMRIwEAYDVQQKDAlT
YW50YW5kZXIxEjAQBgNVBAMMCWxvY2FsaG9zdDCCASIwDQYJKoZIhvcNAQEBBQAD
ggEPADCCAQoCggEBANvMDT1Va6mYMGto0Inw+hOd9cc49G8ch8skoNFDxsg1Bxvf
w+dB2wvgtZCVVZIEOCxK9kDC4eup90rqS2vP1wbVUtR7KolXZQuuzwdtrtiZZ2CD
Ivvt4FrsIl8Xw7RiTu0In42SSelBwL2vXwxdI1SaVC/eDTC4F87ECE0p+8Tmi8c8
XT16HwXRmUIiWv9JRKL8NWxrsm8+Cok7HG4EtQ6SlEKC3+NinygYKWaXL02SnCcp
dN7lqMm39lEsPT1nfkbU30e6BM6UwEFaEwHo9j4uaos5Z9x1U26Zo405yoeBfZS1
Ah/cucfCnTr9tfF+x6KKBVVBajG3q0KfidXNiqsCAwEAAaNNMEswCQYDVR0TBAIw
ADAdBgNVHQ4EFgQU5XpgIIOYWvqGZKqQgw7PICkrnLUwHwYDVR0jBBgwFoAUfkWd
/CMVp/3XOvvye+6gld1kPA8wDQYJKoZIhvcNAQELBQADggEBAA/43uBuI0VP6kta
jaraF3UXTBY157CkG6AtuqY8B/3Sj0W7K8oBYicjvM5YDzn3kn9JepSPyr5mgKXd
5PmmSpDKrlo4lkCwlFgFg6eFzSDPqDrWeWbW2+zhu9S/fjgENGuzju65p0VD1NfM
8/qiSJICM80ypg+/3/1frILL53nPb8fIEYiiUKYjun82dwoyYtjrHhKSsMK2laDd
AA5c1bcJ/EruJ6zy5Tnte1ZUzSDh6BnWKHfBL5jPmv/qKduWNv5ers2uOlG6kVPk
HG0a0EnRfkH03Pmah+FFfujgYWZutbcz0o1rHvzztBkqjLUCL8JwREKM6Wn70jUY
/5L7YoE=
-----END CERTIFICATE-----
