Certificate:
    Data:
        Version: 3 (0x2)
        Serial Number: 4097 (0x1001)
        Signature Algorithm: sha256WithRSAEncryption
        Issuer: C=AR, ST=Buenos Aires, L=CABA, CN=BancoCentralCA
        Validity
            Not Before: May 26 21:36:53 2026 GMT
            Not After : May 26 21:36:53 2027 GMT
        Subject: C=AR, ST=Buenos Aires, O=MercadoPago, CN=mercadopago
        Subject Public Key Info:
            Public Key Algorithm: rsaEncryption
                Public-Key: (2048 bit)
                Modulus:
                    00:bb:21:ed:e8:f2:25:82:32:10:fd:0a:2f:8d:84:
                    7e:4a:d4:fa:e3:a7:d7:38:23:a9:a2:81:ec:89:6e:
                    62:c5:e6:72:ca:02:05:6a:e7:9b:b0:65:4e:b1:c3:
                    a2:ad:ce:39:9b:19:5a:1b:8f:7e:5e:1b:0c:d8:b5:
                    84:c1:7a:31:ee:0c:ef:d5:a4:3e:e6:8b:64:9a:50:
                    d1:9b:b2:d9:ab:2b:3a:07:c6:33:89:88:a8:ba:45:
                    e2:dd:73:eb:ff:66:a7:a8:6d:88:6a:cf:ef:58:91:
                    3e:81:fc:60:96:75:ec:f6:7e:31:56:c4:cc:6c:6f:
                    84:2c:c4:b2:e7:66:7d:a2:87:55:17:e0:82:9a:26:
                    8f:e2:0d:0f:02:a6:26:1e:a4:31:f4:0c:6b:42:a7:
                    68:61:16:1d:6a:0a:ad:5b:22:40:64:1c:cf:54:a1:
                    20:19:3f:0a:90:da:42:34:90:b1:3e:f1:7d:97:da:
                    16:12:df:3a:8b:88:5e:b0:dd:70:96:19:c3:8a:e3:
                    60:9d:c4:9a:30:18:3f:e9:ea:0c:12:43:5c:21:b0:
                    0f:ae:59:5d:ca:81:87:63:23:2e:41:6f:6f:6e:de:
                    9c:79:08:79:4f:fe:e0:b7:73:d9:e0:97:ab:89:55:
                    24:a0:14:c5:cb:fd:0a:82:33:20:50:9e:c2:f9:60:
                    a6:f3
                Exponent: 65537 (0x10001)
        X509v3 extensions:
            X509v3 Basic Constraints: 
                CA:FALSE
            X509v3 Subject Key Identifier: 
                01:36:E0:3B:8B:CE:84:AE:87:E9:D3:C2:CA:20:EB:C0:8B:3A:4E:3A
            X509v3 Authority Key Identifier: 
                7E:45:9D:FC:23:15:A7:FD:D7:3A:FB:F2:7B:EE:A0:95:DD:64:3C:0F
    Signature Algorithm: sha256WithRSAEncryption
    Signature Value:
        19:78:25:e5:f1:4a:52:02:f2:95:d0:68:62:0b:a0:66:1b:5f:
        53:ce:c8:3d:b7:52:64:d0:4f:a0:ea:33:79:96:33:2f:d5:6e:
        00:60:00:88:ed:12:f6:d8:6e:96:ea:b6:a4:5c:31:90:3b:1c:
        fc:ea:67:05:65:7d:69:6b:af:b8:f4:d5:36:3f:41:06:ec:96:
        8a:a4:da:0a:bb:41:96:ce:f4:33:86:a5:6b:52:9b:a3:d4:9d:
        b5:ef:46:fd:1d:82:09:d3:d6:9a:16:5c:36:37:54:f5:44:3b:
        94:a7:80:62:8b:4d:46:b9:27:c6:6c:92:60:dc:97:c2:f0:da:
        ec:c4:f1:6c:88:c3:0b:e2:b2:93:57:97:a5:2d:fb:ae:1a:7d:
        2b:41:ab:01:a3:7f:a3:49:cf:4c:ef:cb:e6:53:f7:04:48:17:
        c0:2a:20:3a:51:83:14:55:8b:94:e5:42:f0:46:16:42:d8:1c:
        e4:6d:b4:bd:56:21:32:95:32:52:f1:3c:34:7d:a6:6a:95:b8:
        cf:cc:4c:5e:03:cb:b1:9b:e8:e1:cd:c2:aa:5f:3b:fe:94:69:
        40:31:a6:f6:ec:25:0f:0c:44:7d:ac:6f:f9:27:05:82:94:0d:
        16:5d:5b:d8:10:3e:b2:a6:12:cf:47:57:1f:69:a3:16:c0:68:
        4b:09:1a:fc
-----BEGIN CERTIFICATE-----
MIIDZTCCAk2gAwIBAgICEAEwDQYJKoZIhvcNAQELBQAwTDELMAkGA1UEBhMCQVIx
FTATBgNVBAgMDEJ1ZW5vcyBBaXJlczENMAsGA1UEBwwEQ0FCQTEXMBUGA1UEAwwO
QmFuY29DZW50cmFsQ0EwHhcNMjYwNTI2MjEzNjUzWhcNMjcwNTI2MjEzNjUzWjBQ
MQswCQYDVQQGEwJBUjEVMBMGA1UECAwMQnVlbm9zIEFpcmVzMRQwEgYDVQQKDAtN
ZXJjYWRvUGFnbzEUMBIGA1UEAwwLbWVyY2Fkb3BhZ28wggEiMA0GCSqGSIb3DQEB
AQUAA4IBDwAwggEKAoIBAQC7Ie3o8iWCMhD9Ci+NhH5K1Prjp9c4I6migeyJbmLF
5nLKAgVq55uwZU6xw6KtzjmbGVobj35eGwzYtYTBejHuDO/VpD7mi2SaUNGbstmr
KzoHxjOJiKi6ReLdc+v/ZqeobYhqz+9YkT6B/GCWdez2fjFWxMxsb4QsxLLnZn2i
h1UX4IKaJo/iDQ8CpiYepDH0DGtCp2hhFh1qCq1bIkBkHM9UoSAZPwqQ2kI0kLE+
8X2X2hYS3zqLiF6w3XCWGcOK42CdxJowGD/p6gwSQ1whsA+uWV3KgYdjIy5Bb29u
3px5CHlP/uC3c9ngl6uJVSSgFMXL/QqCMyBQnsL5YKbzAgMBAAGjTTBLMAkGA1Ud
EwQCMAAwHQYDVR0OBBYEFAE24DuLzoSuh+nTwsog68CLOk46MB8GA1UdIwQYMBaA
FH5FnfwjFaf91zr78nvuoJXdZDwPMA0GCSqGSIb3DQEBCwUAA4IBAQAZeCXl8UpS
AvKV0GhiC6BmG19Tzsg9t1Jk0E+g6jN5ljMv1W4AYACI7RL22G6W6rakXDGQOxz8
6mcFZX1pa6+49NU2P0EG7JaKpNoKu0GWzvQzhqVrUpuj1J2170b9HYIJ09aaFlw2
N1T1RDuUp4Bii01GuSfGbJJg3JfC8NrsxPFsiMML4rKTV5elLfuuGn0rQasBo3+j
Sc9M78vmU/cESBfAKiA6UYMUVYuU5ULwRhZC2BzkbbS9ViEylTJS8Tw0faZqlbjP
zExeA8uxm+jhzcKqXzv+lGlAMab27CUPDER9rG/5JwWClA0WXVvYED6yphLPR1cf
aaMWwGhLCRr8
-----END CERTIFICATE-----
