Certificate:
    Data:
        Version: 3 (0x2)
        Serial Number: 4098 (0x1002)
        Signature Algorithm: sha256WithRSAEncryption
        Issuer: C=AR, ST=Buenos Aires, L=CABA, CN=BancoCentralCA
        Validity
            Not Before: May 26 21:38:08 2026 GMT
            Not After : May 26 21:38:08 2027 GMT
        Subject: C=AR, ST=Buenos Aires, O=BBVA, CN=BancoBBVA
        Subject Public Key Info:
            Public Key Algorithm: rsaEncryption
                Public-Key: (2048 bit)
                Modulus:
                    00:a3:d1:05:e3:2f:af:16:08:23:b2:a2:9e:bc:16:
                    0b:09:2a:30:50:22:61:76:40:22:dd:d9:34:66:25:
                    65:0e:55:a9:83:a4:13:be:24:6d:45:6f:27:32:c0:
                    b7:d9:c5:87:ba:43:f4:ec:bc:a8:41:9f:59:6c:b4:
                    1b:87:c8:93:e8:39:4a:db:65:a5:ab:80:0f:77:ed:
                    e1:7b:65:04:01:12:76:75:fc:b6:ad:57:b9:90:f9:
                    33:f7:42:2b:9b:e1:9d:9a:3e:a9:23:7d:73:19:7c:
                    7b:c8:bf:01:2b:7b:e9:bc:69:a4:8e:fe:10:97:de:
                    97:c4:36:54:97:7e:6f:be:eb:95:67:78:87:36:c3:
                    bd:28:be:55:41:26:e6:5e:68:f3:44:aa:4b:93:9d:
                    42:71:42:4d:1f:9e:72:00:e8:12:db:f8:14:80:77:
                    ed:b8:5a:82:4b:1f:31:81:78:f9:83:85:2d:6f:b0:
                    e4:04:71:57:36:92:58:be:18:ed:b8:2f:fc:cf:3d:
                    51:47:13:bf:51:d2:9d:76:6e:43:d0:c0:99:ed:f4:
                    99:f4:30:b5:48:96:16:6f:de:94:75:09:7f:db:a5:
                    5f:a6:1a:ae:21:14:82:29:fd:d2:55:ac:4e:cc:73:
                    d0:9d:a1:ee:ca:2d:72:c9:c3:f4:18:46:6d:89:ce:
                    f0:61
                Exponent: 65537 (0x10001)
        X509v3 extensions:
            X509v3 Basic Constraints: 
                CA:FALSE
            X509v3 Subject Key Identifier: 
                70:64:B5:B0:F6:06:B2:22:A6:AE:4D:A9:47:A5:D1:21:0D:15:8C:51
            X509v3 Authority Key Identifier: 
                7E:45:9D:FC:23:15:A7:FD:D7:3A:FB:F2:7B:EE:A0:95:DD:64:3C:0F
    Signature Algorithm: sha256WithRSAEncryption
    Signature Value:
        76:ed:5b:65:02:2b:e5:1f:9d:eb:24:c9:cb:01:d8:10:90:1a:
        c2:39:b1:cf:0e:27:8f:22:88:cf:49:cd:51:fb:b2:51:dd:a0:
        15:f8:24:52:a8:4d:e2:94:a8:24:49:08:3c:a6:90:9c:13:c2:
        82:ed:14:72:4d:a2:c0:95:f3:42:56:30:80:16:09:72:a3:42:
        40:ea:ad:47:30:6e:6a:51:82:5b:23:0e:5a:f7:3a:ff:d9:9f:
        ec:a8:f2:28:ec:c3:e2:3c:9b:72:e4:ca:83:f0:54:1c:4e:d2:
        bf:6d:76:bf:7c:32:90:0b:ef:f4:67:97:5b:60:58:d8:a7:57:
        35:cd:0c:fd:d7:98:56:71:50:08:f9:a0:31:8b:0d:d7:d5:7f:
        e2:3d:1c:69:f1:fe:f8:30:59:15:22:ec:3c:14:4f:f2:45:27:
        f7:a9:30:cb:2b:40:e4:8d:b9:5b:d2:43:26:12:70:a0:18:73:
        bf:18:2d:33:0d:c2:b2:64:3c:82:0c:45:05:b0:92:06:f4:84:
        6d:2b:57:b9:17:fd:15:93:93:0b:0c:00:eb:44:5b:5b:e9:bc:
        3b:1f:06:39:ff:6a:91:88:fd:ec:b4:61:94:aa:1a:c2:be:ce:
        46:d8:79:43:ac:94:37:72:4b:02:6a:37:21:6b:12:d3:ed:d4:
        6b:1a:99:e5
-----BEGIN CERTIFICATE-----
MIIDXDCCAkSgAwIBAgICEAIwDQYJKoZIhvcNAQELBQAwTDELMAkGA1UEBhMCQVIx
FTATBgNVBAgMDEJ1ZW5vcyBBaXJlczENMAsGA1UEBwwEQ0FCQTEXMBUGA1UEAwwO
QmFuY29DZW50cmFsQ0EwHhcNMjYwNTI2MjEzODA4WhcNMjcwNTI2MjEzODA4WjBH
MQswCQYDVQQGEwJBUjEVMBMGA1UECAwMQnVlbm9zIEFpcmVzMQ0wCwYDVQQKDARC
QlZBMRIwEAYDVQQDDAlCYW5jb0JCVkEwggEiMA0GCSqGSIb3DQEBAQUAA4IBDwAw
ggEKAoIBAQCj0QXjL68WCCOyop68FgsJKjBQImF2QCLd2TRmJWUOVamDpBO+JG1F
bycywLfZxYe6Q/TsvKhBn1lstBuHyJPoOUrbZaWrgA937eF7ZQQBEnZ1/LatV7mQ
+TP3Qiub4Z2aPqkjfXMZfHvIvwEre+m8aaSO/hCX3pfENlSXfm++65VneIc2w70o
vlVBJuZeaPNEqkuTnUJxQk0fnnIA6BLb+BSAd+24WoJLHzGBePmDhS1vsOQEcVc2
kli+GO24L/zPPVFHE79R0p12bkPQwJnt9Jn0MLVIlhZv3pR1CX/bpV+mGq4hFIIp
/dJVrE7Mc9Cdoe7KLXLJw/QYRm2JzvBhAgMBAAGjTTBLMAkGA1UdEwQCMAAwHQYD
VR0OBBYEFHBktbD2BrIipq5NqUel0SENFYxRMB8GA1UdIwQYMBaAFH5FnfwjFaf9
1zr78nvuoJXdZDwPMA0GCSqGSIb3DQEBCwUAA4IBAQB27VtlAivlH53rJMnLAdgQ
kBrCObHPDiePIojPSc1R+7JR3aAV+CRSqE3ilKgkSQg8ppCcE8KC7RRyTaLAlfNC
VjCAFglyo0JA6q1HMG5qUYJbIw5a9zr/2Z/sqPIo7MPiPJty5MqD8FQcTtK/bXa/
fDKQC+/0Z5dbYFjYp1c1zQz915hWcVAI+aAxiw3X1X/iPRxp8f74MFkVIuw8FE/y
RSf3qTDLK0Dkjblb0kMmEnCgGHO/GC0zDcKyZDyCDEUFsJIG9IRtK1e5F/0Vk5ML
DADrRFtb6bw7HwY5/2qRiP3stGGUqhrCvs5G2HlDrJQ3cksCajchaxLT7dRrGpnl
-----END CERTIFICATE-----
