Certificate:
    Data:
        Version: 3 (0x2)
        Serial Number: 4096 (0x1000)
        Signature Algorithm: sha256WithRSAEncryption
        Issuer: C=AR, ST=Buenos Aires, L=CABA, CN=BancoCentralCA
        Validity
            Not Before: May 26 03:41:16 2026 GMT
            Not After : May 26 03:41:16 2027 GMT
        Subject: C=AR, ST=Buenos Aires, O=Santander, CN=localhost
        Subject Public Key Info:
            Public Key Algorithm: rsaEncryption
                Public-Key: (2048 bit)
                Modulus:
                    00:d9:b5:91:3a:83:e1:46:23:24:24:14:05:ba:13:
                    fb:f5:a2:8a:45:3b:d6:43:a5:ad:b7:94:7e:06:3f:
                    86:6d:2b:f6:1c:55:03:a8:44:b4:6e:39:48:7f:b7:
                    20:59:ba:34:e5:f4:e4:51:2a:8a:48:f5:47:f5:d6:
                    80:73:ed:8e:31:70:7f:75:b9:21:f3:37:bf:8f:44:
                    97:6a:52:34:31:bf:a1:54:52:31:17:6d:0e:61:69:
                    d0:cb:0d:50:21:65:7d:4f:fe:ad:06:96:e5:80:a6:
                    9b:b9:bf:be:a1:49:a6:f6:11:99:d7:20:ed:1e:63:
                    3b:e3:41:8a:dd:ea:d4:f6:dd:b0:4a:08:4a:82:4c:
                    1e:a1:ea:85:ca:0c:a0:89:ae:e1:a8:30:ca:43:a2:
                    ae:ce:d8:00:c6:24:07:08:c7:80:40:20:74:a0:8b:
                    88:87:1e:d5:73:f5:64:9b:2c:25:56:3c:cc:22:c0:
                    a8:a4:d4:c7:f4:7f:56:b8:35:c3:0e:63:f1:26:71:
                    57:f1:98:99:03:43:02:af:94:9b:ca:ce:43:b6:43:
                    2f:fa:51:84:20:25:cb:50:96:e3:ff:90:eb:db:65:
                    c1:2f:13:a8:af:33:5c:61:3b:05:27:a7:ae:b4:bf:
                    97:c6:a2:da:43:2b:8e:14:0a:d8:1c:6c:04:b5:db:
                    a8:5f
                Exponent: 65537 (0x10001)
        X509v3 extensions:
            X509v3 Basic Constraints: 
                CA:FALSE
            X509v3 Subject Key Identifier: 
                D5:D7:09:49:38:92:35:95:63:FB:57:E1:3C:B7:DA:CC:82:62:01:30
            X509v3 Authority Key Identifier: 
                53:E1:75:5F:96:55:76:D3:FB:E1:F1:36:63:AA:2E:91:92:DF:B7:C1
    Signature Algorithm: sha256WithRSAEncryption
    Signature Value:
        c0:a7:45:ba:58:78:e4:4d:e1:1b:dd:54:71:be:28:2c:9a:bf:
        71:59:ed:95:ee:bd:db:52:c5:ab:c7:37:d4:db:71:e8:c1:fd:
        bf:34:03:d6:a6:ae:56:fa:c8:47:65:5f:bb:ff:cf:0e:9e:43:
        ce:cc:d1:63:0a:c1:86:16:2a:40:71:b2:ca:45:5e:58:15:5d:
        97:d7:52:d4:9c:4e:d9:d7:db:33:06:d8:da:74:df:7b:46:95:
        31:80:d7:0b:ff:24:ca:c3:06:7c:96:12:75:da:65:23:6f:aa:
        14:b0:1b:48:ce:99:06:19:03:45:4e:61:8b:e2:ce:7d:0d:c6:
        e2:9f:ba:59:b1:6c:03:34:f0:1d:ce:23:7f:72:ab:9b:51:08:
        26:c8:6b:04:75:6e:84:0e:2f:c4:76:4b:c0:51:a6:5c:ce:f9:
        aa:3e:aa:dd:c2:cc:d3:b3:0d:a4:d4:ce:f0:e9:ab:9a:17:ad:
        a8:24:2c:41:91:06:93:c3:2d:cb:df:80:8a:95:1c:61:ed:a6:
        a5:08:79:ab:de:96:ad:86:ad:3f:c6:7f:c5:d2:a2:1d:69:0c:
        f2:e0:a4:d9:36:74:f5:f2:8a:2c:3c:61:4d:bb:57:78:32:8a:
        b6:d5:1d:db:ca:2e:22:8b:d8:2a:b1:cc:8f:24:87:ce:0a:64:
        be:85:99:05
-----BEGIN CERTIFICATE-----
MIIDYTCCAkmgAwIBAgICEAAwDQYJKoZIhvcNAQELBQAwTDELMAkGA1UEBhMCQVIx
FTATBgNVBAgMDEJ1ZW5vcyBBaXJlczENMAsGA1UEBwwEQ0FCQTEXMBUGA1UEAwwO
QmFuY29DZW50cmFsQ0EwHhcNMjYwNTI2MDM0MTE2WhcNMjcwNTI2MDM0MTE2WjBM
MQswCQYDVQQGEwJBUjEVMBMGA1UECAwMQnVlbm9zIEFpcmVzMRIwEAYDVQQKDAlT
YW50YW5kZXIxEjAQBgNVBAMMCWxvY2FsaG9zdDCCASIwDQYJKoZIhvcNAQEBBQAD
ggEPADCCAQoCggEBANm1kTqD4UYjJCQUBboT+/WiikU71kOlrbeUfgY/hm0r9hxV
A6hEtG45SH+3IFm6NOX05FEqikj1R/XWgHPtjjFwf3W5IfM3v49El2pSNDG/oVRS
MRdtDmFp0MsNUCFlfU/+rQaW5YCmm7m/vqFJpvYRmdcg7R5jO+NBit3q1PbdsEoI
SoJMHqHqhcoMoImu4agwykOirs7YAMYkBwjHgEAgdKCLiIce1XP1ZJssJVY8zCLA
qKTUx/R/Vrg1ww5j8SZxV/GYmQNDAq+Um8rOQ7ZDL/pRhCAly1CW4/+Q69tlwS8T
qK8zXGE7BSenrrS/l8ai2kMrjhQK2BxsBLXbqF8CAwEAAaNNMEswCQYDVR0TBAIw
ADAdBgNVHQ4EFgQU1dcJSTiSNZVj+1fhPLfazIJiATAwHwYDVR0jBBgwFoAUU+F1
X5ZVdtP74fE2Y6oukZLft8EwDQYJKoZIhvcNAQELBQADggEBAMCnRbpYeORN4Rvd
VHG+KCyav3FZ7ZXuvdtSxavHN9TbcejB/b80A9amrlb6yEdlX7v/zw6eQ87M0WMK
wYYWKkBxsspFXlgVXZfXUtScTtnX2zMG2Np033tGlTGA1wv/JMrDBnyWEnXaZSNv
qhSwG0jOmQYZA0VOYYvizn0NxuKfulmxbAM08B3OI39yq5tRCCbIawR1boQOL8R2
S8BRplzO+ao+qt3CzNOzDaTUzvDpq5oXragkLEGRBpPDLcvfgIqVHGHtpqUIeave
lq2GrT/Gf8XSoh1pDPLgpNk2dPXyiiw8YU27V3gyirbVHdvKLiKL2CqxzI8kh84K
ZL6FmQU=
-----END CERTIFICATE-----
