Certificate:
    Data:
        Version: 3 (0x2)
        Serial Number: 4096 (0x1000)
        Signature Algorithm: sha256WithRSAEncryption
        Issuer: C=AR, ST=Buenos Aires, L=CABA, CN=BancoCentralCA
        Validity
            Not Before: May 26 20:54:36 2026 GMT
            Not After : May 26 20:54:36 2027 GMT
        Subject: C=AR, ST=Buenos Aires, O=Santander, CN=localhost
        Subject Public Key Info:
            Public Key Algorithm: rsaEncryption
                Public-Key: (2048 bit)
                Modulus:
                    00:8d:96:3b:aa:c6:8f:c1:43:3d:ac:21:25:e8:63:
                    c1:10:74:44:de:25:5c:ef:6c:e4:4d:d0:2b:30:9d:
                    59:0f:86:9f:77:44:53:d4:7a:d7:cc:19:30:3c:f8:
                    44:c0:3d:44:03:9b:01:4b:a5:64:bf:74:0c:7b:25:
                    79:bb:be:5e:dc:75:d4:4e:59:38:17:3d:35:57:e0:
                    81:af:b8:b1:8e:0f:c3:b4:16:65:8f:cb:1d:f9:85:
                    94:4f:4f:48:fa:2c:c4:44:c7:dc:00:e7:fb:db:bb:
                    54:79:df:08:4c:37:ad:2d:64:58:54:0d:7b:9a:d1:
                    14:db:8c:9b:78:1f:88:88:ff:da:30:e9:db:82:01:
                    2c:37:51:02:cd:2a:3f:41:61:67:59:35:86:72:87:
                    3c:50:52:41:2d:e5:44:91:00:c5:b0:01:bd:65:b0:
                    94:65:ed:17:3f:0c:b8:72:5d:0b:7c:e6:c9:06:4a:
                    a0:27:15:0a:34:bd:ee:54:4e:49:23:14:62:21:55:
                    e4:18:fa:f5:1e:dc:d3:71:9b:f0:ba:ac:ca:ee:b3:
                    9d:f1:9b:e3:96:1c:9d:ef:34:da:41:63:a1:88:c7:
                    f7:36:af:63:04:36:b3:31:3f:8f:6f:5b:3e:43:96:
                    96:6a:57:91:e7:32:80:95:16:4f:8e:03:4f:93:36:
                    cf:53
                Exponent: 65537 (0x10001)
        X509v3 extensions:
            X509v3 Basic Constraints: 
                CA:FALSE
            X509v3 Subject Key Identifier: 
                89:D4:86:24:80:7A:E0:09:BD:89:15:EB:35:67:1F:65:51:57:E3:C3
            X509v3 Authority Key Identifier: 
                5E:FE:0F:09:9B:32:E9:18:E1:4A:70:85:7B:05:C0:05:E6:2A:C2:38
    Signature Algorithm: sha256WithRSAEncryption
    Signature Value:
        59:51:fe:35:8a:b1:36:3d:8d:8e:3b:2f:d0:7a:b4:9d:e6:81:
        76:ad:af:e5:08:74:08:6c:15:01:e2:b9:28:75:e0:54:85:21:
        37:16:b0:d4:33:19:c4:2b:31:64:d3:56:cc:0f:7c:64:aa:42:
        e6:6a:ab:cc:33:cc:e0:15:66:a2:6e:26:72:7f:08:1f:4a:60:
        5a:19:a0:20:00:86:9e:fd:d0:02:7f:a9:96:3e:bd:c1:a7:18:
        75:10:41:49:34:a3:ce:92:44:b1:9d:77:c9:6c:6f:f6:f1:cc:
        b5:53:10:f6:e1:e7:dd:b5:04:4b:1f:62:3a:4c:bf:37:b3:63:
        78:ca:99:db:56:b3:d6:13:64:be:96:3e:87:ed:64:46:13:ad:
        d1:e3:d7:c1:2e:97:24:50:c3:5f:52:e9:5a:b7:31:f6:85:c2:
        80:55:2c:6f:2b:0d:f7:0c:eb:b5:4b:69:c1:a0:e8:e5:50:ca:
        b9:9f:33:2b:6a:8c:95:3f:49:29:d0:8e:97:75:aa:d8:8d:01:
        6c:a7:3b:ed:82:50:aa:3c:20:fc:a2:9c:76:03:ee:6f:c5:60:
        aa:e5:6c:19:55:d2:16:4e:55:66:63:e9:7c:54:d7:25:d0:a0:
        fb:d1:d3:0f:12:02:7b:40:33:9a:03:e1:95:b6:9e:fd:c0:12:
        c3:50:5c:8f
-----BEGIN CERTIFICATE-----
MIIDYTCCAkmgAwIBAgICEAAwDQYJKoZIhvcNAQELBQAwTDELMAkGA1UEBhMCQVIx
FTATBgNVBAgMDEJ1ZW5vcyBBaXJlczENMAsGA1UEBwwEQ0FCQTEXMBUGA1UEAwwO
QmFuY29DZW50cmFsQ0EwHhcNMjYwNTI2MjA1NDM2WhcNMjcwNTI2MjA1NDM2WjBM
MQswCQYDVQQGEwJBUjEVMBMGA1UECAwMQnVlbm9zIEFpcmVzMRIwEAYDVQQKDAlT
YW50YW5kZXIxEjAQBgNVBAMMCWxvY2FsaG9zdDCCASIwDQYJKoZIhvcNAQEBBQAD
ggEPADCCAQoCggEBAI2WO6rGj8FDPawhJehjwRB0RN4lXO9s5E3QKzCdWQ+Gn3dE
U9R618wZMDz4RMA9RAObAUulZL90DHslebu+Xtx11E5ZOBc9NVfgga+4sY4Pw7QW
ZY/LHfmFlE9PSPosxETH3ADn+9u7VHnfCEw3rS1kWFQNe5rRFNuMm3gfiIj/2jDp
24IBLDdRAs0qP0FhZ1k1hnKHPFBSQS3lRJEAxbABvWWwlGXtFz8MuHJdC3zmyQZK
oCcVCjS97lROSSMUYiFV5Bj69R7c03Gb8Lqsyu6znfGb45Ycne802kFjoYjH9zav
YwQ2szE/j29bPkOWlmpXkecygJUWT44DT5M2z1MCAwEAAaNNMEswCQYDVR0TBAIw
ADAdBgNVHQ4EFgQUidSGJIB64Am9iRXrNWcfZVFX48MwHwYDVR0jBBgwFoAUXv4P
CZsy6RjhSnCFewXABeYqwjgwDQYJKoZIhvcNAQELBQADggEBAFlR/jWKsTY9jY47
L9B6tJ3mgXatr+UIdAhsFQHiuSh14FSFITcWsNQzGcQrMWTTVswPfGSqQuZqq8wz
zOAVZqJuJnJ/CB9KYFoZoCAAhp790AJ/qZY+vcGnGHUQQUk0o86SRLGdd8lsb/bx
zLVTEPbh5921BEsfYjpMvzezY3jKmdtWs9YTZL6WPoftZEYTrdHj18EulyRQw19S
6Vq3MfaFwoBVLG8rDfcM67VLacGg6OVQyrmfMytqjJU/SSnQjpd1qtiNAWynO+2C
UKo8IPyinHYD7m/FYKrlbBlV0hZOVWZj6XxU1yXQoPvR0w8SAntAM5oD4ZW2nv3A
EsNQXI8=
-----END CERTIFICATE-----
