Certificate:
    Data:
        Version: 3 (0x2)
        Serial Number: 4098 (0x1002)
        Signature Algorithm: sha256WithRSAEncryption
        Issuer: C=AR, ST=Buenos Aires, L=CABA, CN=BancoCentralCA
        Validity
            Not Before: Jun 10 21:51:30 2026 GMT
            Not After : Jun 10 21:51:30 2027 GMT
        Subject: C=AR, ST=Buenos Aires, O=BBVA, CN=BancoBBVA
        Subject Public Key Info:
            Public Key Algorithm: rsaEncryption
                Public-Key: (2048 bit)
                Modulus:
                    00:9f:4f:66:6b:d8:bf:9e:43:ae:f3:6a:5e:a8:00:
                    3a:78:cd:d9:27:35:d8:72:a1:fa:50:b1:32:0a:8b:
                    2d:c4:82:fc:55:b1:67:69:93:5a:b7:f5:f8:e5:4a:
                    69:36:ab:18:84:27:eb:e5:48:34:ac:a2:8f:64:e3:
                    92:86:c1:f8:80:a3:76:84:bf:db:87:ad:d0:ad:b0:
                    dd:2a:8b:ba:a3:15:33:68:38:d8:e7:b7:08:b3:4a:
                    50:3f:ce:5f:f9:df:3a:0e:77:ff:d8:28:f7:da:69:
                    64:92:e4:30:16:ca:ce:b0:ad:d5:f2:5a:4f:a3:94:
                    83:17:b1:07:c3:5f:42:ec:76:31:46:b9:44:70:6e:
                    ed:c1:68:a0:c8:81:65:d9:4d:b7:70:c4:05:53:88:
                    15:69:4a:a5:5b:d3:66:90:7e:d1:89:0a:10:08:5d:
                    cb:b7:27:24:93:da:1a:ff:6b:89:1f:4c:f0:7c:6a:
                    3a:d6:6b:67:10:b9:e6:a5:92:4c:1b:ff:80:b5:e5:
                    1b:32:1b:25:4d:91:c3:d9:0f:bd:a5:25:31:0e:4d:
                    0a:7d:c0:c9:f0:93:de:6d:71:71:24:4d:bf:e6:8d:
                    6f:14:45:c4:ee:b7:e2:e6:f0:f4:d2:b1:2e:8e:a1:
                    c5:5e:ff:01:7f:80:0d:21:a4:72:3c:dd:ed:3d:aa:
                    7b:e5
                Exponent: 65537 (0x10001)
        X509v3 extensions:
            X509v3 Basic Constraints: 
                CA:FALSE
            Netscape Cert Type: 
                SSL Client
            X509v3 Key Usage: critical
                Digital Signature
            X509v3 Extended Key Usage: 
                TLS Web Client Authentication
            X509v3 Subject Key Identifier: 
                C5:FC:0C:59:4A:DC:AA:01:39:43:BA:30:77:8B:6D:41:AB:14:A0:2E
            X509v3 Authority Key Identifier: 
                9A:E7:04:65:FA:67:B2:9C:33:51:9D:CC:E4:56:69:F2:38:55:EE:A1
    Signature Algorithm: sha256WithRSAEncryption
    Signature Value:
        42:06:29:6f:11:9f:7b:8f:cf:62:67:7d:6f:11:96:c3:57:fa:
        21:b5:60:82:fd:a7:0e:38:24:d3:d5:bd:b6:4d:4f:c7:11:8d:
        72:ac:42:be:5b:dd:4c:c2:37:63:0e:7d:4a:e9:54:70:1a:d7:
        a8:13:87:89:2f:28:c0:72:2f:dd:72:6c:a6:09:00:10:fb:c4:
        37:f2:f3:35:4c:0e:52:bc:39:b4:a8:cc:59:36:c4:2a:6e:dd:
        05:01:62:b0:b9:e2:51:c3:83:9c:35:48:c4:f0:24:d0:71:bc:
        1a:61:dc:63:52:d8:30:74:2c:8c:73:fa:a5:db:c0:ad:36:67:
        e3:9b:23:a6:f6:dd:3a:0e:a4:70:f4:a0:22:0c:8b:85:25:2f:
        43:1e:bb:e4:5c:db:70:f6:ca:7c:b2:77:21:24:e9:ee:f5:b0:
        ed:ba:e7:a6:25:50:6b:8f:16:ad:24:44:51:1a:05:b2:1a:a5:
        f1:07:66:af:db:37:01:86:dc:a3:6a:72:81:29:16:5c:e7:d7:
        01:1f:85:7a:17:f2:78:ba:ee:d2:d9:96:f8:ba:ac:36:e0:2b:
        f5:e7:89:94:2b:50:0d:96:01:b2:eb:fe:5b:53:1b:7f:41:91:
        7f:e1:5e:ea:35:aa:90:12:d8:43:08:f2:88:9e:3e:f1:1c:3c:
        18:b4:c9:42
-----BEGIN CERTIFICATE-----
MIIDljCCAn6gAwIBAgICEAIwDQYJKoZIhvcNAQELBQAwTDELMAkGA1UEBhMCQVIx
FTATBgNVBAgMDEJ1ZW5vcyBBaXJlczENMAsGA1UEBwwEQ0FCQTEXMBUGA1UEAwwO
QmFuY29DZW50cmFsQ0EwHhcNMjYwNjEwMjE1MTMwWhcNMjcwNjEwMjE1MTMwWjBH
MQswCQYDVQQGEwJBUjEVMBMGA1UECAwMQnVlbm9zIEFpcmVzMQ0wCwYDVQQKDARC
QlZBMRIwEAYDVQQDDAlCYW5jb0JCVkEwggEiMA0GCSqGSIb3DQEBAQUAA4IBDwAw
ggEKAoIBAQCfT2Zr2L+eQ67zal6oADp4zdknNdhyofpQsTIKiy3EgvxVsWdpk1q3
9fjlSmk2qxiEJ+vlSDSsoo9k45KGwfiAo3aEv9uHrdCtsN0qi7qjFTNoONjntwiz
SlA/zl/53zoOd//YKPfaaWSS5DAWys6wrdXyWk+jlIMXsQfDX0LsdjFGuURwbu3B
aKDIgWXZTbdwxAVTiBVpSqVb02aQftGJChAIXcu3JyST2hr/a4kfTPB8ajrWa2cQ
uealkkwb/4C15RsyGyVNkcPZD72lJTEOTQp9wMnwk95tcXEkTb/mjW8URcTut+Lm
8PTSsS6OocVe/wF/gA0hpHI83e09qnvlAgMBAAGjgYYwgYMwCQYDVR0TBAIwADAR
BglghkgBhvhCAQEEBAMCB4AwDgYDVR0PAQH/BAQDAgeAMBMGA1UdJQQMMAoGCCsG
AQUFBwMCMB0GA1UdDgQWBBTF/AxZStyqATlDujB3i21BqxSgLjAfBgNVHSMEGDAW
gBSa5wRl+meynDNRnczkVmnyOFXuoTANBgkqhkiG9w0BAQsFAAOCAQEAQgYpbxGf
e4/PYmd9bxGWw1f6IbVggv2nDjgk09W9tk1PxxGNcqxCvlvdTMI3Yw59SulUcBrX
qBOHiS8owHIv3XJspgkAEPvEN/LzNUwOUrw5tKjMWTbEKm7dBQFisLniUcODnDVI
xPAk0HG8GmHcY1LYMHQsjHP6pdvArTZn45sjpvbdOg6kcPSgIgyLhSUvQx675Fzb
cPbKfLJ3ISTp7vWw7brnpiVQa48WrSREURoFshql8Qdmr9s3AYbco2pygSkWXOfX
AR+FehfyeLru0tmW+LqsNuAr9eeJlCtQDZYBsuv+W1Mbf0GRf+Fe6jWqkBLYQwjy
iJ4+8Rw8GLTJQg==
-----END CERTIFICATE-----
