Certificate:
    Data:
        Version: 3 (0x2)
        Serial Number: 4098 (0x1002)
        Signature Algorithm: sha256WithRSAEncryption
        Issuer: C=AR, ST=Buenos Aires, L=CABA, CN=BancoCentralCA
        Validity
            Not Before: May 26 03:42:00 2026 GMT
            Not After : May 26 03:42:00 2027 GMT
        Subject: C=AR, ST=Buenos Aires, O=BBVA, CN=BancoBBVA
        Subject Public Key Info:
            Public Key Algorithm: rsaEncryption
                Public-Key: (2048 bit)
                Modulus:
                    00:b6:1b:1a:08:a0:0d:f7:0d:5f:33:86:46:21:cd:
                    0f:43:fb:25:39:13:e7:67:5e:ec:9e:9b:7e:6e:4b:
                    2b:49:e1:71:3f:e6:fe:12:2f:6b:d7:e5:2b:d4:6b:
                    3d:94:a4:83:0f:d6:68:34:50:2c:c7:13:6d:9d:1c:
                    0c:fc:79:95:81:78:74:69:51:00:3b:cf:d8:06:f0:
                    41:24:7a:99:aa:e3:9c:ee:13:b2:90:ec:87:d0:f3:
                    f3:2f:de:86:39:66:7c:19:3f:1e:46:19:62:42:c5:
                    6e:bd:88:c4:9e:94:c6:16:0d:8f:24:71:67:34:a9:
                    d6:48:d4:5b:28:24:6c:9d:e1:4b:7f:cf:4a:84:1a:
                    ba:fc:f2:fc:3c:40:f1:71:16:54:02:b7:12:f3:18:
                    a3:a6:4d:35:38:fc:82:29:88:9a:fd:8d:39:fe:76:
                    c1:de:2c:8b:c8:54:93:9b:0a:65:ea:af:40:c7:c3:
                    a5:40:d2:6a:09:8b:61:a1:59:e5:e7:81:c3:93:17:
                    7e:2b:07:82:11:c1:32:94:c7:ed:f6:a5:3a:07:fd:
                    a1:fb:27:3b:5d:40:e9:28:f8:a1:49:9a:f2:b0:98:
                    d6:ce:25:bf:1f:71:1a:8b:70:a0:66:07:19:16:63:
                    d6:54:4a:c1:1a:98:b9:32:5d:1e:8b:b5:ee:28:54:
                    82:7b
                Exponent: 65537 (0x10001)
        X509v3 extensions:
            X509v3 Basic Constraints: 
                CA:FALSE
            X509v3 Subject Key Identifier: 
                C9:D9:C8:49:51:E7:E3:F0:56:7A:9F:19:A8:D7:F9:19:A2:D9:76:00
            X509v3 Authority Key Identifier: 
                53:E1:75:5F:96:55:76:D3:FB:E1:F1:36:63:AA:2E:91:92:DF:B7:C1
    Signature Algorithm: sha256WithRSAEncryption
    Signature Value:
        2c:b7:e3:55:34:e7:6d:00:50:aa:30:81:e2:0e:8f:12:f7:0c:
        da:ef:fe:44:09:ae:74:c2:d7:07:ee:0e:91:96:8d:7c:2e:e1:
        87:38:f0:96:72:f8:48:2f:35:dc:3b:63:43:d8:2d:3a:46:de:
        48:7c:dd:c0:aa:dc:63:84:1b:2a:ec:81:a5:c5:7a:88:c4:2e:
        e7:b3:6c:7d:36:7d:f3:b9:06:45:eb:ac:4f:7e:1d:0b:ca:32:
        86:99:28:4b:cf:01:ae:47:9f:42:97:29:e1:1c:2c:de:65:7b:
        e3:7f:3e:69:e0:a4:67:85:e2:a9:4e:bf:40:c9:85:58:0b:e1:
        7e:f3:41:a4:c3:49:91:a3:e9:64:c4:4a:43:09:44:04:cd:2a:
        97:d5:14:d2:bd:df:96:17:4a:b8:34:a4:21:cf:b1:ef:cf:41:
        ae:5e:e2:a5:88:ba:b4:01:80:2d:8f:9d:f5:12:92:26:55:05:
        e1:eb:e8:29:b3:f4:4c:78:14:e4:4e:a2:df:b4:3d:a5:33:bb:
        f7:33:7b:8b:18:60:14:17:c4:81:0c:8b:91:37:55:fc:4e:74:
        49:4a:b3:17:66:50:ed:7b:89:3e:fe:19:1c:e3:d4:bf:ee:01:
        59:77:e7:69:e3:63:cb:4d:19:30:b3:e4:02:e5:e7:b6:00:bf:
        15:c1:75:16
-----BEGIN CERTIFICATE-----
MIIDXDCCAkSgAwIBAgICEAIwDQYJKoZIhvcNAQELBQAwTDELMAkGA1UEBhMCQVIx
FTATBgNVBAgMDEJ1ZW5vcyBBaXJlczENMAsGA1UEBwwEQ0FCQTEXMBUGA1UEAwwO
QmFuY29DZW50cmFsQ0EwHhcNMjYwNTI2MDM0MjAwWhcNMjcwNTI2MDM0MjAwWjBH
MQswCQYDVQQGEwJBUjEVMBMGA1UECAwMQnVlbm9zIEFpcmVzMQ0wCwYDVQQKDARC
QlZBMRIwEAYDVQQDDAlCYW5jb0JCVkEwggEiMA0GCSqGSIb3DQEBAQUAA4IBDwAw
ggEKAoIBAQC2GxoIoA33DV8zhkYhzQ9D+yU5E+dnXuyem35uSytJ4XE/5v4SL2vX
5SvUaz2UpIMP1mg0UCzHE22dHAz8eZWBeHRpUQA7z9gG8EEkepmq45zuE7KQ7IfQ
8/Mv3oY5ZnwZPx5GGWJCxW69iMSelMYWDY8kcWc0qdZI1FsoJGyd4Ut/z0qEGrr8
8vw8QPFxFlQCtxLzGKOmTTU4/IIpiJr9jTn+dsHeLIvIVJObCmXqr0DHw6VA0moJ
i2GhWeXngcOTF34rB4IRwTKUx+32pToH/aH7JztdQOko+KFJmvKwmNbOJb8fcRqL
cKBmBxkWY9ZUSsEamLkyXR6Lte4oVIJ7AgMBAAGjTTBLMAkGA1UdEwQCMAAwHQYD
VR0OBBYEFMnZyElR5+PwVnqfGajX+Rmi2XYAMB8GA1UdIwQYMBaAFFPhdV+WVXbT
++HxNmOqLpGS37fBMA0GCSqGSIb3DQEBCwUAA4IBAQAst+NVNOdtAFCqMIHiDo8S
9wza7/5ECa50wtcH7g6Rlo18LuGHOPCWcvhILzXcO2ND2C06Rt5IfN3AqtxjhBsq
7IGlxXqIxC7ns2x9Nn3zuQZF66xPfh0LyjKGmShLzwGuR59ClynhHCzeZXvjfz5p
4KRnheKpTr9AyYVYC+F+80Gkw0mRo+lkxEpDCUQEzSqX1RTSvd+WF0q4NKQhz7Hv
z0GuXuKliLq0AYAtj531EpImVQXh6+gps/RMeBTkTqLftD2lM7v3M3uLGGAUF8SB
DIuRN1X8TnRJSrMXZlDte4k+/hkc49S/7gFZd+dp42PLTRkws+QC5ee2AL8VwXUW
-----END CERTIFICATE-----
