Certificate:
    Data:
        Version: 3 (0x2)
        Serial Number: 4096 (0x1000)
        Signature Algorithm: sha256WithRSAEncryption
        Issuer: C=AR, ST=Buenos Aires, L=CABA, CN=BancoCentralCA
        Validity
            Not Before: Jun 10 21:51:19 2026 GMT
            Not After : Jun 10 21:51:19 2027 GMT
        Subject: C=AR, ST=Buenos Aires, O=Santander, CN=localhost
        Subject Public Key Info:
            Public Key Algorithm: rsaEncryption
                Public-Key: (2048 bit)
                Modulus:
                    00:bf:1f:c4:46:77:ff:90:92:b1:7b:54:24:3c:9e:
                    8c:1d:c6:8d:04:fc:42:75:1e:4c:5f:78:48:f2:81:
                    6a:59:1a:2d:fa:a9:04:3c:8d:f4:df:5e:cf:53:6e:
                    c8:45:10:c0:3e:0d:cc:ae:f7:d7:23:d2:7f:a1:b1:
                    c6:c8:9b:77:fd:1e:f0:28:89:cd:9f:88:a9:e3:2b:
                    84:fd:a8:6c:16:c0:47:08:dd:93:73:ad:d3:53:41:
                    28:dd:68:38:7b:79:5b:9e:ee:25:a2:2c:4b:13:0d:
                    00:f3:01:0b:f6:73:ee:96:fa:5e:e2:29:74:92:1a:
                    77:e4:5a:46:e5:13:2d:24:2d:5f:9e:1f:38:07:ff:
                    f4:88:67:b5:76:58:0e:81:ae:47:b6:5c:39:94:5e:
                    b5:fc:be:92:34:3f:06:d6:9f:c7:85:fe:a5:f1:ea:
                    ae:63:47:c8:d8:13:fd:a9:94:11:c0:a4:b0:c9:e1:
                    59:b7:07:71:0a:2e:20:07:b9:0e:3a:25:d4:9a:d3:
                    9c:48:fb:a6:28:77:c4:fb:32:9b:fb:db:e6:72:f5:
                    d3:ec:0d:c2:32:76:84:10:0d:78:7a:98:e8:cb:f6:
                    9c:c3:1d:92:4c:dd:8b:0a:59:db:42:3b:2c:b0:a2:
                    ad:e9:11:38:8a:0e:da:a7:65:96:4f:12:23:a5:92:
                    3f:a1
                Exponent: 65537 (0x10001)
        X509v3 extensions:
            X509v3 Basic Constraints: 
                CA:FALSE
            Netscape Cert Type: 
                SSL Server
            X509v3 Key Usage: critical
                Digital Signature, Key Encipherment
            X509v3 Extended Key Usage: 
                TLS Web Server Authentication
            X509v3 Subject Alternative Name: 
                DNS:localhost, IP Address:127.0.0.1
            X509v3 Subject Key Identifier: 
                7D:9A:C8:DB:7D:A4:18:47:D5:75:B8:3C:B8:12:C9:1F:7F:0E:5B:27
            X509v3 Authority Key Identifier: 
                9A:E7:04:65:FA:67:B2:9C:33:51:9D:CC:E4:56:69:F2:38:55:EE:A1
    Signature Algorithm: sha256WithRSAEncryption
    Signature Value:
        4e:1b:b5:9a:07:12:d7:46:0a:95:ac:f6:4d:91:4f:b7:ac:54:
        c6:bc:77:e0:4b:47:5d:85:0c:02:42:e4:9b:38:53:30:e5:3d:
        ed:67:85:9e:95:e7:53:de:0b:de:29:bf:70:e2:f0:80:55:81:
        b5:fb:57:cf:80:0d:37:ad:4c:08:3f:c3:24:9a:2a:3f:6b:d4:
        4a:57:d1:fd:c0:97:0c:6e:7a:47:6a:23:3f:4a:ce:95:8e:b0:
        78:31:4c:ce:50:9f:8c:88:16:0a:9b:79:a5:85:a0:fa:c1:80:
        f7:cf:f9:91:52:43:4e:f7:d0:dd:61:d8:c5:ad:59:f6:d2:10:
        5d:39:9f:e1:ef:06:ae:e1:05:49:15:08:f0:e6:73:3b:5a:02:
        d2:4d:cb:3f:3f:ab:39:1d:f7:ac:4c:bc:d3:c3:3b:44:6d:3f:
        2b:d2:b9:e9:2b:21:39:c1:b0:b0:0f:56:26:dc:4d:34:d9:34:
        06:34:10:8d:36:ad:4e:0e:95:23:23:c3:61:80:99:4e:ba:16:
        09:b5:fc:af:3b:bd:dd:e1:7e:2c:f7:1d:73:ce:b5:84:74:83:
        4e:6e:95:6a:95:e2:ff:d0:5b:90:42:6f:f7:56:62:1f:f8:91:
        1d:11:aa:0a:f1:8a:2a:78:9e:86:4d:36:26:d8:f5:81:c3:fc:
        b9:b2:2c:f2
-----BEGIN CERTIFICATE-----
MIIDtzCCAp+gAwIBAgICEAAwDQYJKoZIhvcNAQELBQAwTDELMAkGA1UEBhMCQVIx
FTATBgNVBAgMDEJ1ZW5vcyBBaXJlczENMAsGA1UEBwwEQ0FCQTEXMBUGA1UEAwwO
QmFuY29DZW50cmFsQ0EwHhcNMjYwNjEwMjE1MTE5WhcNMjcwNjEwMjE1MTE5WjBM
MQswCQYDVQQGEwJBUjEVMBMGA1UECAwMQnVlbm9zIEFpcmVzMRIwEAYDVQQKDAlT
YW50YW5kZXIxEjAQBgNVBAMMCWxvY2FsaG9zdDCCASIwDQYJKoZIhvcNAQEBBQAD
ggEPADCCAQoCggEBAL8fxEZ3/5CSsXtUJDyejB3GjQT8QnUeTF94SPKBalkaLfqp
BDyN9N9ez1NuyEUQwD4NzK731yPSf6Gxxsibd/0e8CiJzZ+IqeMrhP2obBbARwjd
k3Ot01NBKN1oOHt5W57uJaIsSxMNAPMBC/Zz7pb6XuIpdJIad+RaRuUTLSQtX54f
OAf/9IhntXZYDoGuR7ZcOZRetfy+kjQ/Btafx4X+pfHqrmNHyNgT/amUEcCksMnh
WbcHcQouIAe5Djol1JrTnEj7pih3xPsym/vb5nL10+wNwjJ2hBANeHqY6Mv2nMMd
kkzdiwpZ20I7LLCirekROIoO2qdllk8SI6WSP6ECAwEAAaOBojCBnzAJBgNVHRME
AjAAMBEGCWCGSAGG+EIBAQQEAwIGQDAOBgNVHQ8BAf8EBAMCBaAwEwYDVR0lBAww
CgYIKwYBBQUHAwEwGgYDVR0RBBMwEYIJbG9jYWxob3N0hwR/AAABMB0GA1UdDgQW
BBR9msjbfaQYR9V1uDy4Eskffw5bJzAfBgNVHSMEGDAWgBSa5wRl+meynDNRnczk
VmnyOFXuoTANBgkqhkiG9w0BAQsFAAOCAQEAThu1mgcS10YKlaz2TZFPt6xUxrx3
4EtHXYUMAkLkmzhTMOU97WeFnpXnU94L3im/cOLwgFWBtftXz4ANN61MCD/DJJoq
P2vUSlfR/cCXDG56R2ojP0rOlY6weDFMzlCfjIgWCpt5pYWg+sGA98/5kVJDTvfQ
3WHYxa1Z9tIQXTmf4e8GruEFSRUI8OZzO1oC0k3LPz+rOR33rEy808M7RG0/K9K5
6SshOcGwsA9WJtxNNNk0BjQQjTatTg6VIyPDYYCZTroWCbX8rzu93eF+LPcdc861
hHSDTm6VapXi/9BbkEJv91ZiH/iRHRGqCvGKKniehk02Jtj1gcP8ubIs8g==
-----END CERTIFICATE-----
